; Function Attrs: inlinehint mustprogress nounwind uwtable
define internal void @_ZN7rocksdb12_GLOBAL__N_125LegacyRandomRWFileWrapperD2Ev(ptr noundef nonnull align 8 captures(none) dereferenceable(16) initializes((0, 8)) %0) unnamed_addr #18 align 2 personality ptr @__gxx_personality_v0 {
  store ptr getelementptr inbounds nuw inrange(-16, 88) (i8, ptr @_ZTVN7rocksdb12_GLOBAL__N_125LegacyRandomRWFileWrapperE, i64 16), ptr %0, align 8, !tbaa !18
  %2 = getelementptr inbounds nuw i8, ptr %0, i64 8
  %3 = load ptr, ptr %2, align 8, !tbaa !485
  %.not.i = icmp eq ptr %3, null
  br i1 %.not.i, label %_ZNSt10unique_ptrIN7rocksdb12RandomRWFileESt14default_deleteIS1_EED2Ev.exit, label %_ZNKSt14default_deleteIN7rocksdb12RandomRWFileEEclEPS1_.exit.i

_ZNKSt14default_deleteIN7rocksdb12RandomRWFileEEclEPS1_.exit.i: ; preds = %1
  %4 = load ptr, ptr %3, align 8, !tbaa !18
  %5 = getelementptr inbounds nuw i8, ptr %4, i64 8
  %6 = load ptr, ptr %5, align 8
  tail call void %6(ptr noundef nonnull align 8 dereferenceable(8) %3) #37
  br label %_ZNSt10unique_ptrIN7rocksdb12RandomRWFileESt14default_deleteIS1_EED2Ev.exit

_ZNSt10unique_ptrIN7rocksdb12RandomRWFileESt14default_deleteIS1_EED2Ev.exit: ; preds = %1, %_ZNKSt14default_deleteIN7rocksdb12RandomRWFileEEclEPS1_.exit.i
  store ptr null, ptr %2, align 8, !tbaa !485
  ret void
}